target datalayout = "e-m:e-p270:32:32-p271:32:32-p272:64:64-i64:64-i128:128-f80:128-n8:16:32:64-S128"
target triple = "x86_64-pc-linux-gnu"

%struct._OGLSDOps = type { %struct._SurfaceDataOps, ptr, ptr, i32, i32, i8, i8, i32, i32, i32, i32, i32, i32, i32, i32, i32, i32, i32 }
%struct._SurfaceDataOps = type { ptr, ptr, ptr, ptr, ptr, ptr, ptr }
%struct._GLXSDOps = type { i64, i64, i64, ptr }
%struct._AwtGraphicsConfigData = type { i32, i64, %struct.XVisualInfo, i32, ptr, ptr, ptr, i64, i32, i32, ptr, i32, ptr, ptr, i32, %struct.XRenderPictFormat }
%struct.XVisualInfo = type { ptr, i64, i32, i32, i32, i64, i64, i64, i32, i32 }
%struct.XRenderPictFormat = type { i64, i32, i32, %struct.XRenderDirectFormat, i64 }
%struct.XRenderDirectFormat = type { i16, i16, i16, i16, i16, i16, i16, i16 }
%struct._GLXGraphicsConfigInfo = type { i32, i32, ptr, ptr }
%struct.OGLContext = type { ptr, i32, i32, float, i32, i32, i8, i8, i8, i8, i32, i8, ptr, i32, i32, i8 }
%struct._GLXCtxInfo = type { ptr, ptr, i64 }

@j2d_glBindFramebufferEXT = external global ptr, align 8
@.str.7 = private unnamed_addr constant [45 x i8] c"OGLSD_MakeOGLContextCurrent: context is null\00", align 1
@j2d_glBindTexture = external global ptr, align 8
@j2d_glXMakeContextCurrent = external global ptr, align 8
@awt_display = external global ptr, align 8
@.str.8 = private unnamed_addr constant [52 x i8] c"OGLSD_MakeOGLContextCurrent: could not make current\00", align 1
@.str.13 = private unnamed_addr constant [44 x i8] c"GLXSD_MakeCurrentToScratch: context is null\00", align 1
@.str.14 = private unnamed_addr constant [51 x i8] c"GLXSD_MakeCurrentToScratch: could not make current\00", align 1

; Function Attrs: nounwind uwtable
define internal zeroext i8 @GLXSD_MakeCurrentToScratch(ptr noundef %0, ptr noundef %1) #0 {
  %3 = alloca i8, align 1
  %4 = alloca ptr, align 8
  %5 = alloca ptr, align 8
  %6 = alloca ptr, align 8
  store ptr %0, ptr %4, align 8
  store ptr %1, ptr %5, align 8
  %7 = load ptr, ptr %5, align 8
  %8 = icmp eq ptr %7, null
  br i1 %8, label %9, label %10

9:                                                ; preds = %2
  call void (i32, i8, ptr, ...) @J2dTraceImpl(i32 noundef 1, i8 noundef zeroext 1, ptr noundef @.str.13)
  store i8 0, ptr %3, align 1
  br label %29

10:                                               ; preds = %2
  %11 = load ptr, ptr %5, align 8
  %12 = getelementptr inbounds %struct.OGLContext, ptr %11, i32 0, i32 0
  %13 = load ptr, ptr %12, align 8
  store ptr %13, ptr %6, align 8
  %14 = load ptr, ptr @j2d_glXMakeContextCurrent, align 8
  %15 = load ptr, ptr @awt_display, align 8
  %16 = load ptr, ptr %6, align 8
  %17 = getelementptr inbounds %struct._GLXCtxInfo, ptr %16, i32 0, i32 2
  %18 = load i64, ptr %17, align 8
  %19 = load ptr, ptr %6, align 8
  %20 = getelementptr inbounds %struct._GLXCtxInfo, ptr %19, i32 0, i32 2
  %21 = load i64, ptr %20, align 8
  %22 = load ptr, ptr %6, align 8
  %23 = getelementptr inbounds %struct._GLXCtxInfo, ptr %22, i32 0, i32 0
  %24 = load ptr, ptr %23, align 8
  %25 = call i32 %14(ptr noundef %15, i64 noundef %18, i64 noundef %21, ptr noundef %24)
  %26 = icmp ne i32 %25, 0
  br i1 %26, label %28, label %27

27:                                               ; preds = %10
  call void (i32, i8, ptr, ...) @J2dTraceImpl(i32 noundef 1, i8 noundef zeroext 1, ptr noundef @.str.14)
  store i8 0, ptr %3, align 1
  br label %29

28:                                               ; preds = %10
  store i8 1, ptr %3, align 1
  br label %29

29:                                               ; preds = %28, %27, %9
  %30 = load i8, ptr %3, align 1
  ret i8 %30
}

; Function Attrs: nounwind uwtable
define hidden ptr @OGLSD_MakeOGLContextCurrent(ptr noundef %0, ptr noundef %1, ptr noundef %2) #0 {
  %4 = alloca ptr, align 8
  %5 = alloca ptr, align 8
  %6 = alloca ptr, align 8
  %7 = alloca ptr, align 8
  %8 = alloca ptr, align 8
  %9 = alloca ptr, align 8
  %10 = alloca ptr, align 8
  %11 = alloca ptr, align 8
  %12 = alloca ptr, align 8
  store ptr %0, ptr %5, align 8
  store ptr %1, ptr %6, align 8
  store ptr %2, ptr %7, align 8
  %13 = load ptr, ptr %7, align 8
  %14 = getelementptr inbounds %struct._OGLSDOps, ptr %13, i32 0, i32 1
  %15 = load ptr, ptr %14, align 8
  store ptr %15, ptr %8, align 8
  %16 = load ptr, ptr %8, align 8
  %17 = getelementptr inbounds %struct._GLXSDOps, ptr %16, i32 0, i32 3
  %18 = load ptr, ptr %17, align 8
  %19 = getelementptr inbounds %struct._AwtGraphicsConfigData, ptr %18, i32 0, i32 13
  %20 = load ptr, ptr %19, align 8
  %21 = getelementptr inbounds %struct._GLXGraphicsConfigInfo, ptr %20, i32 0, i32 2
  %22 = load ptr, ptr %21, align 8
  store ptr %22, ptr %9, align 8
  %23 = load ptr, ptr %9, align 8
  %24 = icmp eq ptr %23, null
  br i1 %24, label %25, label %26

25:                                               ; preds = %3
  call void (i32, i8, ptr, ...) @J2dTraceImpl(i32 noundef 1, i8 noundef zeroext 1, ptr noundef @.str.7)
  store ptr null, ptr %4, align 8
  br label %86

26:                                               ; preds = %3
  %27 = load ptr, ptr %7, align 8
  %28 = getelementptr inbounds %struct._OGLSDOps, ptr %27, i32 0, i32 3
  %29 = load i32, ptr %28, align 8
  %30 = sext i32 %29 to i64
  %31 = icmp eq i64 %30, 5
  br i1 %31, label %32, label %53

32:                                               ; preds = %26
  %33 = call ptr (...) @OGLRenderQueue_GetCurrentContext()
  store ptr %33, ptr %10, align 8
  %34 = load ptr, ptr %9, align 8
  %35 = load ptr, ptr %10, align 8
  %36 = icmp ne ptr %34, %35
  br i1 %36, label %37, label %44

37:                                               ; preds = %32
  %38 = load ptr, ptr %5, align 8
  %39 = load ptr, ptr %9, align 8
  %40 = call zeroext i8 @GLXSD_MakeCurrentToScratch(ptr noundef %38, ptr noundef %39)
  %41 = icmp ne i8 %40, 0
  br i1 %41, label %43, label %42

42:                                               ; preds = %37
  store ptr null, ptr %4, align 8
  br label %86

43:                                               ; preds = %37
  br label %44

44:                                               ; preds = %43, %32
  %45 = load ptr, ptr @j2d_glBindTexture, align 8
  %46 = load ptr, ptr %7, align 8
  %47 = getelementptr inbounds %struct._OGLSDOps, ptr %46, i32 0, i32 14
  %48 = load i32, ptr %47, align 8
  call void %45(i32 noundef %48, i32 noundef 0)
  %49 = load ptr, ptr @j2d_glBindFramebufferEXT, align 8
  %50 = load ptr, ptr %7, align 8
  %51 = getelementptr inbounds %struct._OGLSDOps, ptr %50, i32 0, i32 16
  %52 = load i32, ptr %51, align 8
  call void %49(i32 noundef 36160, i32 noundef %52)
  br label %84

53:                                               ; preds = %26
  %54 = load ptr, ptr %6, align 8
  %55 = getelementptr inbounds %struct._OGLSDOps, ptr %54, i32 0, i32 1
  %56 = load ptr, ptr %55, align 8
  store ptr %56, ptr %11, align 8
  %57 = load ptr, ptr %9, align 8
  %58 = getelementptr inbounds %struct.OGLContext, ptr %57, i32 0, i32 0
  %59 = load ptr, ptr %58, align 8
  store ptr %59, ptr %12, align 8
  %60 = load ptr, ptr @j2d_glXMakeContextCurrent, align 8
  %61 = load ptr, ptr @awt_display, align 8
  %62 = load ptr, ptr %8, align 8
  %63 = getelementptr inbounds %struct._GLXSDOps, ptr %62, i32 0, i32 2
  %64 = load i64, ptr %63, align 8
  %65 = load ptr, ptr %11, align 8
  %66 = getelementptr inbounds %struct._GLXSDOps, ptr %65, i32 0, i32 2
  %67 = load i64, ptr %66, align 8
  %68 = load ptr, ptr %12, align 8
  %69 = getelementptr inbounds %struct._GLXCtxInfo, ptr %68, i32 0, i32 0
  %70 = load ptr, ptr %69, align 8
  %71 = call i32 %60(ptr noundef %61, i64 noundef %64, i64 noundef %67, ptr noundef %70)
  %72 = icmp ne i32 %71, 0
  br i1 %72, label %74, label %73

73:                                               ; preds = %53
  call void (i32, i8, ptr, ...) @J2dTraceImpl(i32 noundef 1, i8 noundef zeroext 1, ptr noundef @.str.8)
  store ptr null, ptr %4, align 8
  br label %86

74:                                               ; preds = %53
  %75 = load ptr, ptr %9, align 8
  %76 = getelementptr inbounds %struct.OGLContext, ptr %75, i32 0, i32 1
  %77 = load i32, ptr %76, align 8
  %78 = sext i32 %77 to i64
  %79 = and i64 %78, 12
  %80 = icmp ne i64 %79, 0
  br i1 %80, label %81, label %83

81:                                               ; preds = %74
  %82 = load ptr, ptr @j2d_glBindFramebufferEXT, align 8
  call void %82(i32 noundef 36160, i32 noundef 0)
  br label %83

83:                                               ; preds = %81, %74
  br label %84

84:                                               ; preds = %83, %44
  %85 = load ptr, ptr %9, align 8
  store ptr %85, ptr %4, align 8
  br label %86

86:                                               ; preds = %84, %73, %42, %25
  %87 = load ptr, ptr %4, align 8
  ret ptr %87
}