; Function Attrs: nounwind uwtable
define hidden ptr @OGLSD_MakeOGLContextCurrent(ptr nocapture noundef readnone %0, ptr nocapture noundef readonly %1, ptr nocapture noundef readonly %2) local_unnamed_addr #0 {
  %4 = getelementptr inbounds i8, ptr %2, i64 56
  %5 = load ptr, ptr %4, align 8
  %6 = getelementptr inbounds i8, ptr %5, i64 24
  %7 = load ptr, ptr %6, align 8
  %8 = getelementptr inbounds i8, ptr %7, i64 152
  %9 = load ptr, ptr %8, align 8
  %10 = getelementptr inbounds i8, ptr %9, i64 8
  %11 = load ptr, ptr %10, align 8
  %12 = icmp eq ptr %11, null
  br i1 %12, label %13, label %14

13:                                               ; preds = %3
  tail call void (i32, i8, ptr, ...) @J2dTraceImpl(i32 noundef 1, i8 noundef zeroext 1, ptr noundef nonnull @.str.7) #5
  br label %53

14:                                               ; preds = %3
  %15 = getelementptr inbounds i8, ptr %2, i64 72
  %16 = load i32, ptr %15, align 8
  %17 = icmp eq i32 %16, 5
  br i1 %17, label %18, label %34

18:                                               ; preds = %14
  %19 = tail call ptr (...) @OGLRenderQueue_GetCurrentContext() #5
  %.not20 = icmp eq ptr %11, %19
  br i1 %.not20, label %GLXSD_MakeCurrentToScratch.exit, label %20

20:                                               ; preds = %18
  %21 = load ptr, ptr %11, align 8
  %22 = load ptr, ptr @j2d_glXMakeContextCurrent, align 8
  %23 = load ptr, ptr @awt_display, align 8
  %24 = getelementptr inbounds i8, ptr %21, i64 16
  %25 = load i64, ptr %24, align 8
  %26 = load ptr, ptr %21, align 8
  %27 = tail call i32 %22(ptr noundef %23, i64 noundef %25, i64 noundef %25, ptr noundef %26) #5
  %.not.i = icmp eq i32 %27, 0
  br i1 %.not.i, label %GLXSD_MakeCurrentToScratch.exit.thread, label %GLXSD_MakeCurrentToScratch.exit

GLXSD_MakeCurrentToScratch.exit.thread:           ; preds = %20
  tail call void (i32, i8, ptr, ...) @J2dTraceImpl(i32 noundef 1, i8 noundef zeroext 1, ptr noundef nonnull @.str.14) #5
  br label %53

GLXSD_MakeCurrentToScratch.exit:                  ; preds = %20, %18
  %28 = load ptr, ptr @j2d_glBindTexture, align 8
  %29 = getelementptr inbounds i8, ptr %2, i64 112
  %30 = load i32, ptr %29, align 8
  tail call void %28(i32 noundef %30, i32 noundef 0) #5
  %31 = load ptr, ptr @j2d_glBindFramebufferEXT, align 8
  %32 = getelementptr inbounds i8, ptr %2, i64 120
  %33 = load i32, ptr %32, align 8
  tail call void %31(i32 noundef 36160, i32 noundef %33) #5
  br label %53

34:                                               ; preds = %14
  %35 = getelementptr inbounds i8, ptr %1, i64 56
  %36 = load ptr, ptr %35, align 8
  %37 = load ptr, ptr %11, align 8
  %38 = load ptr, ptr @j2d_glXMakeContextCurrent, align 8
  %39 = load ptr, ptr @awt_display, align 8
  %40 = getelementptr inbounds i8, ptr %5, i64 16
  %41 = load i64, ptr %40, align 8
  %42 = getelementptr inbounds i8, ptr %36, i64 16
  %43 = load i64, ptr %42, align 8
  %44 = load ptr, ptr %37, align 8
  %45 = tail call i32 %38(ptr noundef %39, i64 noundef %41, i64 noundef %43, ptr noundef %44) #5
  %.not = icmp eq i32 %45, 0
  br i1 %.not, label %46, label %47

46:                                               ; preds = %34
  tail call void (i32, i8, ptr, ...) @J2dTraceImpl(i32 noundef 1, i8 noundef zeroext 1, ptr noundef nonnull @.str.8) #5
  br label %53

47:                                               ; preds = %34
  %48 = getelementptr inbounds i8, ptr %11, i64 8
  %49 = load i32, ptr %48, align 8
  %50 = and i32 %49, 12
  %.not19 = icmp eq i32 %50, 0
  br i1 %.not19, label %53, label %51

51:                                               ; preds = %47
  %52 = load ptr, ptr @j2d_glBindFramebufferEXT, align 8
  tail call void %52(i32 noundef 36160, i32 noundef 0) #5
  br label %53

53:                                               ; preds = %GLXSD_MakeCurrentToScratch.exit.thread, %GLXSD_MakeCurrentToScratch.exit, %51, %47, %46, %13
  %.0 = phi ptr [ null, %13 ], [ null, %46 ], [ %11, %47 ], [ %11, %51 ], [ %11, %GLXSD_MakeCurrentToScratch.exit ], [ null, %GLXSD_MakeCurrentToScratch.exit.thread ]
  ret ptr %.0
}